(lp0
(lp1
F0.0
aF0.0
aF0.0
aF191.0
aa(lp2
F0.0
aF0.0
aF1.0
aF95.0
aa(lp3
F0.02857142857142857
aF0.0
aF0.0
aF529.0
aa(lp4
F0.02857142857142857
aF0.0
aF1.0
aF479.0
aa(lp5
F0.05714285714285714
aF0.0
aF0.0
aF49.0
aa(lp6
F0.05714285714285714
aF0.0
aF1.0
aF15.0
aa(lp7
F0.08571428571428572
aF0.0
aF0.0
aF1837.0
aa(lp8
F0.08571428571428572
aF0.0
aF1.0
aF723.0
aa(lp9
F0.11428571428571428
aF0.0
aF0.0
aF8256.0
aa(lp10
F0.11428571428571428
aF0.0
aF1.0
aF2570.0
aa(lp11
F0.14285714285714285
aF0.0
aF0.0
aF988.0
aa(lp12
F0.14285714285714285
aF0.0
aF1.0
aF737.0
aa(lp13
F0.17142857142857143
aF0.0
aF0.0
aF14181.0
aa(lp14
F0.2
aF0.0
aF1.0
aF2837.0
aa(lp15
F0.22857142857142856
aF0.0
aF0.0
aF732.0
aa(lp16
F0.22857142857142856
aF0.0
aF1.0
aF210.0
aa(lp17
F0.2571428571428571
aF0.0
aF0.0
aF193.0
aa(lp18
F0.2571428571428571
aF0.0
aF1.0
aF138.0
aa(lp19
F0.2857142857142857
aF0.0
aF0.0
aF5088.0
aa(lp20
F0.2857142857142857
aF0.0
aF1.0
aF1864.0
aa(lp21
F0.3142857142857143
aF0.0
aF0.0
aF2277.0
aa(lp22
F0.3142857142857143
aF0.0
aF1.0
aF767.0
aa(lp23
F0.34285714285714286
aF0.0
aF0.0
aF3027.0
aa(lp24
F0.34285714285714286
aF0.0
aF1.0
aF772.0
aa(lp25
F0.37142857142857144
aF0.0
aF0.0
aF321.0
aa(lp26
F0.37142857142857144
aF0.0
aF1.0
aF79.0
aa(lp27
F0.4
aF0.0
aF0.0
aF1772.0
aa(lp28
F0.4
aF0.0
aF1.0
aF574.0
aa(lp29
F0.42857142857142855
aF0.0
aF0.0
aF609.0
aa(lp30
F0.42857142857142855
aF0.0
aF1.0
aF240.0
aa(lp31
F0.45714285714285713
aF0.0
aF0.0
aF1022.0
aa(lp32
F0.45714285714285713
aF0.0
aF1.0
aF892.0
aa(lp33
F0.4857142857142857
aF0.0
aF0.0
aF6251.0
aa(lp34
F0.4857142857142857
aF0.0
aF1.0
aF4971.0
aa(lp35
F0.5142857142857142
aF0.0
aF0.0
aF6700.0
aa(lp36
F0.5142857142857142
aF0.0
aF1.0
aF984.0
aa(lp37
F0.5428571428571428
aF0.0
aF0.0
aF565.0
aa(lp38
F0.5428571428571428
aF0.0
aF1.0
aF517.0
aa(lp39
F0.5714285714285714
aF0.0
aF0.0
aF855.0
aa(lp40
F0.5714285714285714
aF0.0
aF1.0
aF472.0
aa(lp41
F0.6
aF0.0
aF0.0
aF2545.0
aa(lp42
F0.6285714285714286
aF0.0
aF1.0
aF855.0
aa(lp43
F0.6857142857142857
aF0.0
aF0.0
aF1009.0
aa(lp44
F0.7142857142857143
aF0.0
aF1.0
aF1303.0
aa(lp45
F0.7428571428571429
aF0.0
aF0.0
aF1411.0
aa(lp46
F0.7428571428571429
aF0.0
aF1.0
aF1232.0
aa(lp47
F0.8
aF0.0
aF0.0
aF21808.0
aa(lp48
F0.8
aF0.0
aF1.0
aF1088.0
aa(lp49
F0.8285714285714286
aF0.0
aF0.0
aF1314.0
aa(lp50
F0.8285714285714286
aF0.0
aF1.0
aF892.0
aa(lp51
F0.8857142857142857
aF0.0
aF0.0
aF1556.0
aa(lp52
F0.8857142857142857
aF0.0
aF1.0
aF80.0
aa(lp53
F0.9142857142857143
aF0.0
aF0.0
aF445.0
aa(lp54
F0.9142857142857143
aF0.0
aF1.0
aF139.0
aa(lp55
F0.9428571428571428
aF0.0
aF0.0
aF1652.0
aa(lp56
F0.9714285714285714
aF0.0
aF1.0
aF2255.0
aa.