(lp0
(lp1
F0.0
aF0.0
aF0.0
aF0.6335078534031413
aF0.7172774869109948
aF0.7172774869109948
aF0.6544502617801047
aF0.7382198952879581
aF0.675392670157068
aa(lp2
F0.0
aF0.0
aF1.0
aF0.49473684210526314
aF0.4
aF0.4631578947368421
aF0.3894736842105263
aF0.3263157894736842
aF0.3473684210526316
aa(lp3
F0.02857142857142857
aF0.0
aF0.0
aF0.7088846880907372
aF0.6994328922495274
aF0.665406427221172
aF0.7485822306238186
aF0.7334593572778828
aF0.7542533081285444
aa(lp4
F0.02857142857142857
aF0.0
aF1.0
aF0.6200417536534447
aF0.6764091858037579
aF0.5782881002087683
aF0.6430062630480167
aF0.6638830897703549
aF0.7265135699373695
aa(lp5
F0.05714285714285714
aF0.0
aF0.0
aF0.8979591836734694
aF0.8571428571428571
aF0.7959183673469388
aF0.8571428571428571
aF0.8775510204081632
aF0.8775510204081632
aa(lp6
F0.05714285714285714
aF0.0
aF1.0
aF0.6666666666666666
aF0.5333333333333333
aF0.5333333333333333
aF0.6666666666666666
aF0.6
aF0.5333333333333333
aa(lp7
F0.08571428571428572
aF0.0
aF0.0
aF0.30266739248775176
aF0.3184540010887316
aF0.30593358737071313
aF0.30865541643984756
aF0.33587370713119213
aF0.3396842678279804
aa(lp8
F0.08571428571428572
aF0.0
aF1.0
aF0.34716459197787
aF0.38865836791147995
aF0.42738589211618255
aF0.3872752420470263
aF0.4508990318118949
aF0.40110650069156295
aa(lp9
F0.11428571428571428
aF0.0
aF0.0
aF0.7183866279069767
aF0.7523013565891473
aF0.7851259689922481
aF0.7773740310077519
aF0.7710755813953488
aF0.7996608527131783
aa(lp10
F0.11428571428571428
aF0.0
aF1.0
aF0.7171206225680934
aF0.6556420233463035
aF0.7303501945525291
aF0.7124513618677043
aF0.6937743190661478
aF0.6883268482490272
aa(lp11
F0.14285714285714285
aF0.0
aF0.0
aF0.6224696356275303
aF0.6072874493927125
aF0.5880566801619433
aF0.6538461538461539
aF0.6710526315789473
aF0.701417004048583
aa(lp12
F0.14285714285714285
aF0.0
aF1.0
aF0.5915875169606513
aF0.5915875169606513
aF0.6350067842605156
aF0.6404341926729986
aF0.6472184531886025
aF0.6960651289009498
aa(lp13
F0.17142857142857143
aF0.0
aF0.0
aF0.8643255059586771
aF0.8942951836964953
aF0.8908398561455468
aF0.9587476200550031
aF0.968902052041464
aF1.0
aa(lp14
F0.2
aF0.0
aF1.0
aF0.07789918928445541
aF0.08036658442016215
aF0.0708494888967219
aF0.08353894959464223
aF0.08494888967218893
aF0.08071906943954882
aa(lp15
F0.22857142857142856
aF0.0
aF0.0
aF0.48633879781420764
aF0.5792349726775956
aF0.5368852459016393
aF0.5642076502732241
aF0.5505464480874317
aF0.5901639344262295
aa(lp16
F0.22857142857142856
aF0.0
aF1.0
aF0.5095238095238095
aF0.5714285714285714
aF0.5952380952380952
aF0.47619047619047616
aF0.5666666666666667
aF0.6666666666666666
aa(lp17
F0.2571428571428571
aF0.0
aF0.0
aF0.5699481865284974
aF0.6113989637305699
aF0.5077720207253886
aF0.6321243523316062
aF0.6476683937823834
aF0.7098445595854922
aa(lp18
F0.2571428571428571
aF0.0
aF1.0
aF0.3333333333333333
aF0.2898550724637681
aF0.26811594202898553
aF0.2971014492753623
aF0.3333333333333333
aF0.2826086956521739
aa(lp19
F0.2857142857142857
aF0.0
aF0.0
aF0.8276336477987422
aF0.8616352201257862
aF0.904874213836478
aF0.9070361635220126
aF0.9027122641509434
aF0.9375
aa(lp20
F0.2857142857142857
aF0.0
aF1.0
aF0.677038626609442
aF0.6115879828326181
aF0.6781115879828327
aF0.6394849785407726
aF0.6013948497854077
aF0.5375536480686696
aa(lp21
F0.3142857142857143
aF0.0
aF0.0
aF0.32367149758454106
aF0.3113746157224418
aF0.3328941589811155
aF0.3434343434343434
aF0.3403601229688186
aF0.36978480456741325
aa(lp22
F0.3142857142857143
aF0.0
aF1.0
aF0.27640156453715775
aF0.23598435462842243
aF0.3089960886571056
aF0.318122555410691
aF0.3194263363754889
aF0.3272490221642764
aa(lp23
F0.34285714285714286
aF0.0
aF0.0
aF0.31813676907829536
aF0.31152956722827885
aF0.3313511727783284
aF0.3419226957383548
aF0.3346547737033366
aF0.3647175421209118
aa(lp24
F0.34285714285714286
aF0.0
aF1.0
aF0.2772020725388601
aF0.23834196891191708
aF0.31088082901554404
aF0.3173575129533679
aF0.3225388601036269
aF0.33419689119170987
aa(lp25
F0.37142857142857144
aF0.0
aF0.0
aF0.7757009345794392
aF0.7289719626168224
aF0.7725856697819314
aF0.67601246105919
aF0.8099688473520249
aF0.7694704049844237
aa(lp26
F0.37142857142857144
aF0.0
aF1.0
aF0.3924050632911392
aF0.26582278481012656
aF0.3037974683544304
aF0.3924050632911392
aF0.3670886075949367
aF0.5189873417721519
aa(lp27
F0.4
aF0.0
aF0.0
aF0.44243792325056436
aF0.5118510158013544
aF0.4966139954853273
aF0.5191873589164786
aF0.5586907449209932
aF0.5654627539503386
aa(lp28
F0.4
aF0.0
aF1.0
aF0.5975609756097561
aF0.5714285714285714
aF0.5609756097560976
aF0.5435540069686411
aF0.6027874564459931
aF0.6132404181184669
aa(lp29
F0.42857142857142855
aF0.0
aF0.0
aF0.10016420361247948
aF0.08866995073891626
aF0.09523809523809523
aF0.13136288998357964
aF0.10344827586206896
aF0.13793103448275862
aa(lp30
F0.42857142857142855
aF0.0
aF1.0
aF0.1
aF0.075
aF0.1
aF0.1375
aF0.09166666666666666
aF0.14583333333333334
aa(lp31
F0.45714285714285713
aF0.0
aF0.0
aF0.35518590998043054
aF0.3356164383561644
aF0.3356164383561644
aF0.35909980430528377
aF0.38258317025440314
aF0.37181996086105673
aa(lp32
F0.45714285714285713
aF0.0
aF1.0
aF0.3957399103139013
aF0.39125560538116594
aF0.45067264573991034
aF0.4585201793721973
aF0.4966367713004484
aF0.492152466367713
aa(lp33
F0.4857142857142857
aF0.0
aF0.0
aF0.5650295952647576
aF0.579587266037434
aF0.612062070068789
aF0.6405375139977604
aF0.6683730603103504
aF0.6469364901615742
aa(lp34
F0.4857142857142857
aF0.0
aF1.0
aF0.5469724401528867
aF0.548179440756387
aF0.5910279621806478
aF0.5809696238181452
aF0.6101388050694025
aF0.6399114866224099
aa(lp35
F0.5142857142857142
aF0.0
aF0.0
aF0.6985074626865672
aF0.6423880597014925
aF0.6544776119402985
aF0.6837313432835821
aF0.7002985074626865
aF0.7022388059701492
aa(lp36
F0.5142857142857142
aF0.0
aF1.0
aF0.41971544715447157
aF0.46239837398373984
aF0.43191056910569103
aF0.46239837398373984
aF0.4725609756097561
aF0.45528455284552843
aa(lp37
F0.5428571428571428
aF0.0
aF0.0
aF0.2
aF0.18230088495575222
aF0.1929203539823009
aF0.20530973451327433
aF0.22831858407079647
aF0.21946902654867256
aa(lp38
F0.5428571428571428
aF0.0
aF1.0
aF0.17988394584139264
aF0.1702127659574468
aF0.17988394584139264
aF0.22823984526112184
aF0.2127659574468085
aF0.2263056092843327
aa(lp39
F0.5714285714285714
aF0.0
aF0.0
aF0.6865497076023391
aF0.6514619883040935
aF0.6502923976608187
aF0.6491228070175439
aF0.752046783625731
aF0.7485380116959064
aa(lp40
F0.5714285714285714
aF0.0
aF1.0
aF0.6440677966101694
aF0.6949152542372882
aF0.711864406779661
aF0.7838983050847458
aF0.6800847457627118
aF0.7563559322033898
aa(lp41
F0.6
aF0.0
aF0.0
aF0.7304518664047152
aF0.6856581532416502
aF0.731237721021611
aF0.7288801571709234
aF0.7540275049115913
aF0.7540275049115913
aa(lp42
F0.6285714285714286
aF0.0
aF1.0
aF0.1543859649122807
aF0.16023391812865498
aF0.16842105263157894
aF0.1649122807017544
aF0.1742690058479532
aF0.1672514619883041
aa(lp43
F0.6857142857142857
aF0.0
aF0.0
aF0.35777998017839446
aF0.36174430128840435
aF0.400396432111001
aF0.37462834489593655
aF0.37661050545094155
aF0.4132804757185332
aa(lp44
F0.7142857142857143
aF0.0
aF1.0
aF0.681504221028396
aF0.6224098234842671
aF0.6523407521105142
aF0.6845740598618573
aF0.6584804297774367
aF0.6930161166538756
aa(lp45
F0.7428571428571429
aF0.0
aF0.0
aF0.771793054571226
aF0.7923458540042523
aF0.8610914245216159
aF0.8235294117647058
aF0.8781006378454996
aF0.8880226789510985
aa(lp46
F0.7428571428571429
aF0.0
aF1.0
aF0.862012987012987
aF0.8327922077922078
aF0.8392857142857143
aF0.8717532467532467
aF0.8758116883116883
aF0.9772727272727273
aa(lp47
F0.8
aF0.0
aF0.0
aF0.07887013939838591
aF0.08377659574468085
aF0.08611518708730741
aF0.08267608217168011
aF0.08125458547322084
aF0.08396001467351431
aa(lp48
F0.8
aF0.0
aF1.0
aF0.5340073529411765
aF0.5009191176470589
aF0.5634191176470589
aF0.5873161764705882
aF0.6084558823529411
aF0.7049632352941176
aa(lp49
F0.8285714285714286
aF0.0
aF0.0
aF0.5220700152207002
aF0.5068493150684932
aF0.5220700152207002
aF0.54337899543379
aF0.5030441400304414
aF0.5220700152207002
aa(lp50
F0.8285714285714286
aF0.0
aF1.0
aF0.4428251121076233
aF0.5044843049327354
aF0.48878923766816146
aF0.4663677130044843
aF0.48094170403587444
aF0.4170403587443946
aa(lp51
F0.8857142857142857
aF0.0
aF0.0
aF0.7840616966580977
aF0.8187660668380463
aF0.859254498714653
aF0.9479434447300771
aF0.9820051413881749
aF1.0
aa(lp52
F0.8857142857142857
aF0.0
aF1.0
aF0.675
aF0.825
aF0.75
aF0.7875
aF1.0
aF0.9375
aa(lp53
F0.9142857142857143
aF0.0
aF0.0
aF0.39101123595505616
aF0.3550561797752809
aF0.4449438202247191
aF0.39325842696629215
aF0.4651685393258427
aF0.4966292134831461
aa(lp54
F0.9142857142857143
aF0.0
aF1.0
aF0.3237410071942446
aF0.35251798561151076
aF0.37410071942446044
aF0.4316546762589928
aF0.43884892086330934
aF0.4244604316546763
aa(lp55
F0.9428571428571428
aF0.0
aF0.0
aF0.8274818401937046
aF0.8220338983050848
aF0.8135593220338984
aF0.7657384987893463
aF0.7929782082324455
aF0.8038740920096852
aa(lp56
F0.9714285714285714
aF0.0
aF1.0
aF0.15343680709534369
aF0.1556541019955654
aF0.1516629711751663
aF0.15521064301552107
aF0.15609756097560976
aF0.16274944567627495
aa.